; Function Attrs: nounwind uwtable
define dso_local noundef zeroext i1 @SPI_plan_is_valid(ptr noundef readonly captures(none) %0) local_unnamed_addr #0 {
  %2 = getelementptr inbounds nuw i8, ptr %0, i64 8
  %3 = load ptr, ptr %2, align 8
  %4 = getelementptr inbounds nuw i8, ptr %3, i64 4
  %.not = icmp eq ptr %3, null
  br i1 %.not, label %.critedge, label %.lr.ph

.lr.ph:                                           ; preds = %1
  %5 = getelementptr inbounds nuw i8, ptr %3, i64 16
  %6 = load i32, ptr %4, align 4
  %7 = icmp sgt i32 %6, 0
  br i1 %7, label %.lr.ph26, label %.critedge

8:                                                ; preds = %.lr.ph26
  %indvars.iv.next = add nuw nsw i64 %indvars.iv, 1
  %9 = load i32, ptr %4, align 4
  %10 = sext i32 %9 to i64
  %11 = icmp slt i64 %indvars.iv.next, %10
  br i1 %11, label %.lr.ph26, label %.critedge

.lr.ph26:                                         ; preds = %.lr.ph, %8
  %indvars.iv = phi i64 [ %indvars.iv.next, %8 ], [ 0, %.lr.ph ]
  %12 = load ptr, ptr %5, align 8
  %13 = getelementptr inbounds nuw %union.ListCell, ptr %12, i64 %indvars.iv
  %14 = load ptr, ptr %13, align 8
  %15 = tail call zeroext i1 @CachedPlanIsValid(ptr noundef %14) #15
  br i1 %15, label %8, label %.critedge

.critedge:                                        ; preds = %.lr.ph26, %8, %.lr.ph, %1
  %.not1417 = phi i1 [ true, %1 ], [ true, %.lr.ph ], [ %15, %8 ], [ %15, %.lr.ph26 ]
  ret i1 %.not1417
}